target datalayout = "e-m:e-p270:32:32-p271:32:32-p272:64:64-i64:64-i128:128-f80:128-n8:16:32:64-S128"
target triple = "x86_64-pc-linux-gnu"

%struct.zlibstate = type { ptr, ptr, ptr, ptr }
%struct.z_stream_s = type { ptr, i32, i64, ptr, i32, i64, ptr, ptr, ptr, ptr, ptr, i32, i64, i64 }

@.str.16 = private unnamed_addr constant [25 x i8] c"library version mismatch\00", align 1
@.str.17 = private unnamed_addr constant [31 x i8] c"incomplete or truncated stream\00", align 1
@.str.18 = private unnamed_addr constant [26 x i8] c"inconsistent stream state\00", align 1
@.str.19 = private unnamed_addr constant [19 x i8] c"invalid input data\00", align 1
@.str.20 = private unnamed_addr constant [12 x i8] c"Error %d %s\00", align 1
@.str.21 = private unnamed_addr constant [20 x i8] c"Error %d %s: %.200s\00", align 1

; Function Attrs: nounwind uwtable
define internal void @zlib_error(ptr noundef %0, ptr noundef byval(%struct.z_stream_s) align 8 %1, i32 noundef %2, ptr noundef %3) #0 {
  %5 = alloca ptr, align 8
  %6 = alloca i32, align 4
  %7 = alloca ptr, align 8
  %8 = alloca ptr, align 8
  store ptr %0, ptr %5, align 8, !tbaa !8
  store i32 %2, ptr %6, align 4, !tbaa !12
  store ptr %3, ptr %7, align 8, !tbaa !30
  call void @llvm.lifetime.start.p0(i64 8, ptr %8) #7
  store ptr null, ptr %8, align 8, !tbaa !30
  %9 = load i32, ptr %6, align 4, !tbaa !12
  %10 = icmp eq i32 %9, -6
  br i1 %10, label %11, label %12

11:                                               ; preds = %4
  store ptr @.str.16, ptr %8, align 8, !tbaa !30
  br label %12

12:                                               ; preds = %11, %4
  %13 = load ptr, ptr %8, align 8, !tbaa !30
  %14 = icmp eq ptr %13, null
  br i1 %14, label %15, label %18

15:                                               ; preds = %12
  %16 = getelementptr inbounds nuw %struct.z_stream_s, ptr %1, i32 0, i32 6
  %17 = load ptr, ptr %16, align 8, !tbaa !51
  store ptr %17, ptr %8, align 8, !tbaa !30
  br label %18

18:                                               ; preds = %15, %12
  %19 = load ptr, ptr %8, align 8, !tbaa !30
  %20 = icmp eq ptr %19, null
  br i1 %20, label %21, label %27

21:                                               ; preds = %18
  %22 = load i32, ptr %6, align 4, !tbaa !12
  switch i32 %22, label %26 [
    i32 -5, label %23
    i32 -2, label %24
    i32 -3, label %25
  ]

23:                                               ; preds = %21
  store ptr @.str.17, ptr %8, align 8, !tbaa !30
  br label %26

24:                                               ; preds = %21
  store ptr @.str.18, ptr %8, align 8, !tbaa !30
  br label %26

25:                                               ; preds = %21
  store ptr @.str.19, ptr %8, align 8, !tbaa !30
  br label %26

26:                                               ; preds = %21, %25, %24, %23
  br label %27

27:                                               ; preds = %26, %18
  %28 = load ptr, ptr %8, align 8, !tbaa !30
  %29 = icmp eq ptr %28, null
  br i1 %29, label %30, label %37

30:                                               ; preds = %27
  %31 = load ptr, ptr %5, align 8, !tbaa !8
  %32 = getelementptr inbounds nuw %struct.zlibstate, ptr %31, i32 0, i32 3
  %33 = load ptr, ptr %32, align 8, !tbaa !16
  %34 = load i32, ptr %6, align 4, !tbaa !12
  %35 = load ptr, ptr %7, align 8, !tbaa !30
  %36 = call ptr (ptr, ptr, ...) @PyErr_Format(ptr noundef %33, ptr noundef @.str.20, i32 noundef %34, ptr noundef %35)
  br label %45

37:                                               ; preds = %27
  %38 = load ptr, ptr %5, align 8, !tbaa !8
  %39 = getelementptr inbounds nuw %struct.zlibstate, ptr %38, i32 0, i32 3
  %40 = load ptr, ptr %39, align 8, !tbaa !16
  %41 = load i32, ptr %6, align 4, !tbaa !12
  %42 = load ptr, ptr %7, align 8, !tbaa !30
  %43 = load ptr, ptr %8, align 8, !tbaa !30
  %44 = call ptr (ptr, ptr, ...) @PyErr_Format(ptr noundef %40, ptr noundef @.str.21, i32 noundef %41, ptr noundef %42, ptr noundef %43)
  br label %45

45:                                               ; preds = %37, %30
  call void @llvm.lifetime.end.p0(i64 8, ptr %8) #7
  ret void
}