; Function Attrs: nounwind uwtable
define internal fastcc void @zlib_error(ptr noundef readonly captures(none) %0, ptr %.48.val, i32 noundef %1, ptr noundef %2) unnamed_addr #0 {
  %.not = icmp eq i32 %1, -6
  %.0 = select i1 %.not, ptr @.str.16, ptr %.48.val
  %4 = icmp eq ptr %.0, null
  br i1 %4, label %5, label %12

5:                                                ; preds = %3
  switch i32 %1, label %8 [
    i32 -5, label %12
    i32 -2, label %6
    i32 -3, label %7
  ]

6:                                                ; preds = %5
  br label %12

7:                                                ; preds = %5
  br label %12

8:                                                ; preds = %5
  %9 = getelementptr inbounds nuw i8, ptr %0, i64 24
  %10 = load ptr, ptr %9, align 8, !tbaa !12
  %11 = tail call ptr (ptr, ptr, ...) @PyErr_Format(ptr noundef %10, ptr noundef nonnull @.str.20, i32 noundef %1, ptr noundef %2) #7
  br label %16

12:                                               ; preds = %5, %7, %6, %3
  %.1.ph = phi ptr [ %.0, %3 ], [ @.str.18, %6 ], [ @.str.19, %7 ], [ @.str.17, %5 ]
  %13 = getelementptr inbounds nuw i8, ptr %0, i64 24
  %14 = load ptr, ptr %13, align 8, !tbaa !12
  %15 = tail call ptr (ptr, ptr, ...) @PyErr_Format(ptr noundef %14, ptr noundef nonnull @.str.21, i32 noundef %1, ptr noundef %2, ptr noundef nonnull %.1.ph) #7
  br label %16

16:                                               ; preds = %12, %8
  ret void
}